target datalayout = "e-m:e-p270:32:32-p271:32:32-p272:64:64-i64:64-i128:128-f80:128-n8:16:32:64-S128"
target triple = "x86_64-pc-linux-gnu"

; Function Attrs: nounwind uwtable
define i32 @Abc_TtGetCM(ptr noundef %0, i32 noundef %1, i32 noundef %2, ptr noundef %3, ptr noundef %4, ptr noundef %5, ptr noundef %6, i32 noundef %7) #0 {
  %9 = alloca i32, align 4
  %10 = alloca ptr, align 8
  %11 = alloca i32, align 4
  %12 = alloca i32, align 4
  %13 = alloca ptr, align 8
  %14 = alloca ptr, align 8
  %15 = alloca ptr, align 8
  %16 = alloca ptr, align 8
  %17 = alloca i32, align 4
  store ptr %0, ptr %10, align 8, !tbaa !3
  store i32 %1, ptr %11, align 4, !tbaa !8
  store i32 %2, ptr %12, align 4, !tbaa !8
  store ptr %3, ptr %13, align 8, !tbaa !19
  store ptr %4, ptr %14, align 8, !tbaa !19
  store ptr %5, ptr %15, align 8, !tbaa !37
  store ptr %6, ptr %16, align 8, !tbaa !19
  store i32 %7, ptr %17, align 4, !tbaa !8
  %18 = load i32, ptr %17, align 4, !tbaa !8
  %19 = icmp ne i32 %18, 0
  br i1 %19, label %20, label %29

20:                                               ; preds = %8
  %21 = load ptr, ptr %10, align 8, !tbaa !3
  %22 = load i32, ptr %11, align 4, !tbaa !8
  %23 = load i32, ptr %12, align 4, !tbaa !8
  %24 = load ptr, ptr %13, align 8, !tbaa !19
  %25 = load ptr, ptr %14, align 8, !tbaa !19
  %26 = load ptr, ptr %15, align 8, !tbaa !37
  %27 = load ptr, ptr %16, align 8, !tbaa !19
  %28 = call i32 @Abc_TtGetCMPat(ptr noundef %21, i32 noundef %22, i32 noundef %23, ptr noundef %24, ptr noundef %25, ptr noundef %26, ptr noundef %27)
  store i32 %28, ptr %9, align 4
  br label %38

29:                                               ; preds = %8
  %30 = load ptr, ptr %10, align 8, !tbaa !3
  %31 = load i32, ptr %11, align 4, !tbaa !8
  %32 = load i32, ptr %12, align 4, !tbaa !8
  %33 = load ptr, ptr %13, align 8, !tbaa !19
  %34 = load ptr, ptr %14, align 8, !tbaa !19
  %35 = load ptr, ptr %15, align 8, !tbaa !37
  %36 = load ptr, ptr %16, align 8, !tbaa !19
  %37 = call i32 @Abc_TtGetCMCount(ptr noundef %30, i32 noundef %31, i32 noundef %32, ptr noundef %33, ptr noundef %34, ptr noundef %35, ptr noundef %36)
  store i32 %37, ptr %9, align 4
  br label %38

38:                                               ; preds = %29, %20
  %39 = load i32, ptr %9, align 4
  ret i32 %39
}