; Function Attrs: nounwind uwtable
define i32 @Abc_TtGetCM(ptr noundef readonly captures(none) %0, i32 noundef %1, i32 noundef %2, ptr noundef readonly captures(none) %3, ptr noundef readonly captures(none) %4, ptr noundef captures(none) %5, ptr noundef captures(none) %6, i32 noundef %7) local_unnamed_addr #3 {
  %.not = icmp eq i32 %7, 0
  br i1 %.not, label %11, label %9

9:                                                ; preds = %8
  %10 = tail call i32 @Abc_TtGetCMPat(ptr noundef %0, i32 noundef %1, i32 noundef %2, ptr noundef %3, ptr noundef %4, ptr noundef %5, ptr noundef %6)
  br label %13

11:                                               ; preds = %8
  %12 = tail call i32 @Abc_TtGetCMCount(ptr noundef %0, i32 noundef %1, i32 noundef %2, ptr noundef %3, ptr noundef %4, ptr noundef %5, ptr noundef %6)
  br label %13

13:                                               ; preds = %11, %9
  %.0 = phi i32 [ %10, %9 ], [ %12, %11 ]
  ret i32 %.0
}